; Function Attrs: mustprogress uwtable
define void @_ZNK15ColumnListModel10headerDataEiN2Qt11OrientationEi(ptr dead_on_unwind noalias writable sret(%class.QVariant) align 8 %0, ptr nocapture noundef nonnull readnone align 8 dereferenceable(16) %1, i32 noundef %2, i32 noundef %3, i32 noundef %4) unnamed_addr #2 align 2 personality ptr @__gxx_personality_v0 {
  %6 = alloca %class.QString, align 8
  %7 = icmp sgt i32 %2, 7
  %8 = icmp ne i32 %3, 1
  %or.cond = or i1 %7, %8
  %9 = icmp ne i32 %4, 0
  %or.cond3 = or i1 %or.cond, %9
  br i1 %or.cond3, label %10, label %12

10:                                               ; preds = %5
  tail call void @llvm.memset.p0.i64(ptr noundef nonnull align 8 dereferenceable(24) %0, i8 0, i64 24, i1 false)
  %11 = getelementptr inbounds i8, ptr %0, i64 24
  store i64 2, ptr %11, align 8
  br label %_ZN7QStringD2Ev.exit

12:                                               ; preds = %5
  call void @_ZNK15ColumnListModel11headerTitleEi(ptr dead_on_unwind nonnull writable sret(%class.QString) align 8 %6, ptr nonnull align 8 poison, i32 noundef %2)
  invoke void @_ZN8QVariantC1ERK7QString(ptr noundef nonnull align 8 dereferenceable(32) %0, ptr noundef nonnull align 8 dereferenceable(24) %6)
          to label %13 unwind label %18

13:                                               ; preds = %12
  %14 = load ptr, ptr %6, align 8
  %.not.i.i.i = icmp eq ptr %14, null
  br i1 %.not.i.i.i, label %_ZN7QStringD2Ev.exit, label %_ZN17QArrayDataPointerIDsE5derefEv.exit.i.i

_ZN17QArrayDataPointerIDsE5derefEv.exit.i.i:      ; preds = %13
  %15 = atomicrmw sub ptr %14, i32 1 seq_cst, align 4
  %.not.i.i = icmp eq i32 %15, 1
  br i1 %.not.i.i, label %16, label %_ZN7QStringD2Ev.exit

16:                                               ; preds = %_ZN17QArrayDataPointerIDsE5derefEv.exit.i.i
  %17 = load ptr, ptr %6, align 8
  call void @_ZN10QArrayData10deallocateEPS_xx(ptr noundef %17, i64 noundef 2, i64 noundef 8) #20
  br label %_ZN7QStringD2Ev.exit

18:                                               ; preds = %12
  %19 = landingpad { ptr, i32 }
          cleanup
  %20 = load ptr, ptr %6, align 8
  %.not.i.i.i9 = icmp eq ptr %20, null
  br i1 %.not.i.i.i9, label %_ZN7QStringD2Ev.exit12, label %_ZN17QArrayDataPointerIDsE5derefEv.exit.i.i10

_ZN17QArrayDataPointerIDsE5derefEv.exit.i.i10:    ; preds = %18
  %21 = atomicrmw sub ptr %20, i32 1 seq_cst, align 4
  %.not.i.i11 = icmp eq i32 %21, 1
  br i1 %.not.i.i11, label %22, label %_ZN7QStringD2Ev.exit12

22:                                               ; preds = %_ZN17QArrayDataPointerIDsE5derefEv.exit.i.i10
  %23 = load ptr, ptr %6, align 8
  call void @_ZN10QArrayData10deallocateEPS_xx(ptr noundef %23, i64 noundef 2, i64 noundef 8) #20
  br label %_ZN7QStringD2Ev.exit12

_ZN7QStringD2Ev.exit12:                           ; preds = %18, %_ZN17QArrayDataPointerIDsE5derefEv.exit.i.i10, %22
  resume { ptr, i32 } %19

_ZN7QStringD2Ev.exit:                             ; preds = %16, %_ZN17QArrayDataPointerIDsE5derefEv.exit.i.i, %13, %10
  ret void
}